target datalayout = "e-m:e-p270:32:32-p271:32:32-p272:64:64-i64:64-i128:128-f80:128-n8:16:32:64-S128"
target triple = "x86_64-unknown-linux-gnu"

%"class.facebook::velox::cache::SsdRun" = type { i64 }
%"class.facebook::velox::cache::SsdPin" = type { ptr, %"class.facebook::velox::cache::SsdRun" }
%class.anon = type { ptr }
%"struct.std::_Vector_base.60" = type { %"struct.std::_Vector_base<facebook::velox::cache::SsdPin, std::allocator<facebook::velox::cache::SsdPin>>::_Vector_impl" }
%"struct.std::_Vector_base<facebook::velox::cache::SsdPin, std::allocator<facebook::velox::cache::SsdPin>>::_Vector_impl" = type { %"struct.std::_Vector_base<facebook::velox::cache::SsdPin, std::allocator<facebook::velox::cache::SsdPin>>::_Vector_impl_data" }
%"struct.std::_Vector_base<facebook::velox::cache::SsdPin, std::allocator<facebook::velox::cache::SsdPin>>::_Vector_impl_data" = type { ptr, ptr, ptr }

; Function Attrs: mustprogress nounwind uwtable
define linkonce_odr noundef i64 @_ZNK8facebook5velox5cache6SsdRun6offsetEv(ptr noundef nonnull align 8 dereferenceable(8) %this) #4 comdat align 2 {
entry:
  %this.addr = alloca ptr, align 8
  store ptr %this, ptr %this.addr, align 8
  %this1 = load ptr, ptr %this.addr, align 8
  %bits_ = getelementptr inbounds %"class.facebook::velox::cache::SsdRun", ptr %this1, i32 0, i32 0
  %0 = load i64, ptr %bits_, align 8
  %shr = lshr i64 %0, 23
  ret i64 %shr
}

; Function Attrs: mustprogress nounwind uwtable
define linkonce_odr i64 @_ZNK8facebook5velox5cache6SsdPin3runEv(ptr noundef nonnull align 8 dereferenceable(16) %this) #4 comdat align 2 {
entry:
  %retval = alloca %"class.facebook::velox::cache::SsdRun", align 8
  %this.addr = alloca ptr, align 8
  store ptr %this, ptr %this.addr, align 8
  %this1 = load ptr, ptr %this.addr, align 8
  %run_ = getelementptr inbounds %"class.facebook::velox::cache::SsdPin", ptr %this1, i32 0, i32 1
  call void @llvm.memcpy.p0.p0.i64(ptr align 8 %retval, ptr align 8 %run_, i64 8, i1 false)
  %coerce.dive = getelementptr inbounds %"class.facebook::velox::cache::SsdRun", ptr %retval, i32 0, i32 0
  %0 = load i64, ptr %coerce.dive, align 8
  ret i64 %0
}

; Function Attrs: mustprogress nounwind uwtable
define linkonce_odr noundef nonnull align 8 dereferenceable(16) ptr @_ZNKSt6vectorIN8facebook5velox5cache6SsdPinESaIS3_EEixEm(ptr noundef nonnull align 8 dereferenceable(24) %this, i64 noundef %__n) #4 comdat align 2 {
entry:
  %this.addr = alloca ptr, align 8
  %__n.addr = alloca i64, align 8
  store ptr %this, ptr %this.addr, align 8
  store i64 %__n, ptr %__n.addr, align 8
  %this1 = load ptr, ptr %this.addr, align 8
  %_M_impl = getelementptr inbounds %"struct.std::_Vector_base.60", ptr %this1, i32 0, i32 0
  %_M_start = getelementptr inbounds %"struct.std::_Vector_base<facebook::velox::cache::SsdPin, std::allocator<facebook::velox::cache::SsdPin>>::_Vector_impl_data", ptr %_M_impl, i32 0, i32 0
  %0 = load ptr, ptr %_M_start, align 8
  %1 = load i64, ptr %__n.addr, align 8
  %add.ptr = getelementptr inbounds %"class.facebook::velox::cache::SsdPin", ptr %0, i64 %1
  ret ptr %add.ptr
}

; Function Attrs: mustprogress nounwind uwtable
define internal noundef i64 @"_ZZN8facebook5velox5cache7SsdFile4loadERKSt6vectorINS1_6SsdPinESaIS4_EERKS3_INS1_8CachePinESaIS9_EEENK3$_0clEi"(ptr noundef nonnull align 8 dereferenceable(8) %this, i32 noundef %index) #4 align 2 {
entry:
  %this.addr = alloca ptr, align 8
  %index.addr = alloca i32, align 4
  %ref.tmp = alloca %"class.facebook::velox::cache::SsdRun", align 8
  store ptr %this, ptr %this.addr, align 8
  store i32 %index, ptr %index.addr, align 4
  %this1 = load ptr, ptr %this.addr, align 8
  %0 = getelementptr inbounds %class.anon, ptr %this1, i32 0, i32 0
  %1 = load ptr, ptr %0, align 8
  %2 = load i32, ptr %index.addr, align 4
  %conv = sext i32 %2 to i64
  %call = call noundef nonnull align 8 dereferenceable(16) ptr @_ZNKSt6vectorIN8facebook5velox5cache6SsdPinESaIS3_EEixEm(ptr noundef nonnull align 8 dereferenceable(24) %1, i64 noundef %conv) #29
  %call2 = call i64 @_ZNK8facebook5velox5cache6SsdPin3runEv(ptr noundef nonnull align 8 dereferenceable(16) %call)
  %coerce.dive = getelementptr inbounds %"class.facebook::velox::cache::SsdRun", ptr %ref.tmp, i32 0, i32 0
  store i64 %call2, ptr %coerce.dive, align 8
  %call3 = call noundef i64 @_ZNK8facebook5velox5cache6SsdRun6offsetEv(ptr noundef nonnull align 8 dereferenceable(8) %ref.tmp)
  ret i64 %call3
}

; Function Attrs: mustprogress nounwind uwtable
define linkonce_odr noundef ptr @_ZNKSt9_Any_data9_M_accessEv(ptr noundef nonnull align 8 dereferenceable(16) %this) #4 comdat align 2 {
entry:
  %this.addr = alloca ptr, align 8
  store ptr %this, ptr %this.addr, align 8
  %this1 = load ptr, ptr %this.addr, align 8
  %arrayidx = getelementptr inbounds [16 x i8], ptr %this1, i64 0, i64 0
  ret ptr %arrayidx
}

; Function Attrs: mustprogress uwtable
define internal noundef i64 @"_ZSt13__invoke_implImRZN8facebook5velox5cache7SsdFile4loadERKSt6vectorINS2_6SsdPinESaIS5_EERKS4_INS2_8CachePinESaISA_EEE3$_0JiEET_St14__invoke_otherOT0_DpOT1_"(ptr noundef nonnull align 8 dereferenceable(8) %__f, ptr noundef nonnull align 4 dereferenceable(4) %__args) #2 {
entry:
  %__f.addr = alloca ptr, align 8
  %__args.addr = alloca ptr, align 8
  store ptr %__f, ptr %__f.addr, align 8
  store ptr %__args, ptr %__args.addr, align 8
  %0 = load ptr, ptr %__f.addr, align 8
  %1 = load ptr, ptr %__args.addr, align 8
  %2 = load i32, ptr %1, align 4
  %call = call noundef i64 @"_ZZN8facebook5velox5cache7SsdFile4loadERKSt6vectorINS1_6SsdPinESaIS4_EERKS3_INS1_8CachePinESaIS9_EEENK3$_0clEi"(ptr noundef nonnull align 8 dereferenceable(8) %0, i32 noundef %2)
  ret i64 %call
}

; Function Attrs: mustprogress nounwind uwtable
define internal noundef nonnull align 8 dereferenceable(8) ptr @"_ZNKSt9_Any_data9_M_accessIZN8facebook5velox5cache7SsdFile4loadERKSt6vectorINS3_6SsdPinESaIS6_EERKS5_INS3_8CachePinESaISB_EEE3$_0EERKT_v"(ptr noundef nonnull align 8 dereferenceable(16) %this) #4 align 2 {
entry:
  %this.addr = alloca ptr, align 8
  store ptr %this, ptr %this.addr, align 8
  %this1 = load ptr, ptr %this.addr, align 8
  %call = call noundef ptr @_ZNKSt9_Any_data9_M_accessEv(ptr noundef nonnull align 8 dereferenceable(16) %this1) #29
  ret ptr %call
}

; Function Attrs: mustprogress uwtable
define internal noundef i64 @"_ZSt10__invoke_rImRZN8facebook5velox5cache7SsdFile4loadERKSt6vectorINS2_6SsdPinESaIS5_EERKS4_INS2_8CachePinESaISA_EEE3$_0JiEENSt9enable_ifIX16is_invocable_r_vIT_T0_DpT1_EESI_E4typeEOSJ_DpOSK_"(ptr noundef nonnull align 8 dereferenceable(8) %__fn, ptr noundef nonnull align 4 dereferenceable(4) %__args) #2 {
entry:
  %__fn.addr = alloca ptr, align 8
  %__args.addr = alloca ptr, align 8
  store ptr %__fn, ptr %__fn.addr, align 8
  store ptr %__args, ptr %__args.addr, align 8
  %0 = load ptr, ptr %__fn.addr, align 8
  %1 = load ptr, ptr %__args.addr, align 8
  %call = call noundef i64 @"_ZSt13__invoke_implImRZN8facebook5velox5cache7SsdFile4loadERKSt6vectorINS2_6SsdPinESaIS5_EERKS4_INS2_8CachePinESaISA_EEE3$_0JiEET_St14__invoke_otherOT0_DpOT1_"(ptr noundef nonnull align 8 dereferenceable(8) %0, ptr noundef nonnull align 4 dereferenceable(4) %1)
  ret i64 %call
}

; Function Attrs: mustprogress nounwind uwtable
define internal noundef ptr @"_ZNSt14_Function_base13_Base_managerIZN8facebook5velox5cache7SsdFile4loadERKSt6vectorINS3_6SsdPinESaIS6_EERKS5_INS3_8CachePinESaISB_EEE3$_0E14_M_get_pointerERKSt9_Any_data"(ptr noundef nonnull align 8 dereferenceable(16) %__source) #4 align 2 {
entry:
  %__source.addr = alloca ptr, align 8
  %__f = alloca ptr, align 8
  store ptr %__source, ptr %__source.addr, align 8
  %0 = load ptr, ptr %__source.addr, align 8
  %call = call noundef nonnull align 8 dereferenceable(8) ptr @"_ZNKSt9_Any_data9_M_accessIZN8facebook5velox5cache7SsdFile4loadERKSt6vectorINS3_6SsdPinESaIS6_EERKS5_INS3_8CachePinESaISB_EEE3$_0EERKT_v"(ptr noundef nonnull align 8 dereferenceable(16) %0) #29
  store ptr %call, ptr %__f, align 8
  %1 = load ptr, ptr %__f, align 8
  ret ptr %1
}

; Function Attrs: mustprogress uwtable
define internal noundef i64 @"_ZNSt17_Function_handlerIFmiEZN8facebook5velox5cache7SsdFile4loadERKSt6vectorINS3_6SsdPinESaIS6_EERKS5_INS3_8CachePinESaISB_EEE3$_0E9_M_invokeERKSt9_Any_dataOi"(ptr noundef nonnull align 8 dereferenceable(16) %__functor, ptr noundef nonnull align 4 dereferenceable(4) %__args) #2 align 2 {
entry:
  %__functor.addr = alloca ptr, align 8
  %__args.addr = alloca ptr, align 8
  store ptr %__functor, ptr %__functor.addr, align 8
  store ptr %__args, ptr %__args.addr, align 8
  %0 = load ptr, ptr %__functor.addr, align 8
  %call = call noundef ptr @"_ZNSt14_Function_base13_Base_managerIZN8facebook5velox5cache7SsdFile4loadERKSt6vectorINS3_6SsdPinESaIS6_EERKS5_INS3_8CachePinESaISB_EEE3$_0E14_M_get_pointerERKSt9_Any_data"(ptr noundef nonnull align 8 dereferenceable(16) %0) #29
  %1 = load ptr, ptr %__args.addr, align 8
  %call1 = call noundef i64 @"_ZSt10__invoke_rImRZN8facebook5velox5cache7SsdFile4loadERKSt6vectorINS2_6SsdPinESaIS5_EERKS4_INS2_8CachePinESaISA_EEE3$_0JiEENSt9enable_ifIX16is_invocable_r_vIT_T0_DpT1_EESI_E4typeEOSJ_DpOSK_"(ptr noundef nonnull align 8 dereferenceable(8) %call, ptr noundef nonnull align 4 dereferenceable(4) %1)
  ret i64 %call1
}