; Function Attrs: mustprogress nofree norecurse nosync nounwind willreturn memory(read, inaccessiblemem: none) uwtable
define internal noundef i64 @"_ZNSt17_Function_handlerIFmiEZN8facebook5velox5cache7SsdFile4loadERKSt6vectorINS3_6SsdPinESaIS6_EERKS5_INS3_8CachePinESaISB_EEE3$_0E9_M_invokeERKSt9_Any_dataOi"(ptr nocapture noundef nonnull readonly align 8 dereferenceable(16) %__functor, ptr nocapture noundef nonnull readonly align 4 dereferenceable(4) %__args) #23 align 2 {
entry:
  %call.val = load ptr, ptr %__functor, align 8
  %__args.val = load i32, ptr %__args, align 4
  %call.val.val = load ptr, ptr %call.val, align 8
  %conv.i.i.i = sext i32 %__args.val to i64
  %run_.i.i.i.i = getelementptr inbounds %"class.facebook::velox::cache::SsdPin", ptr %call.val.val, i64 %conv.i.i.i, i32 1
  %retval.sroa.0.0.copyload.i.i.i.i = load i64, ptr %run_.i.i.i.i, align 8
  %shr.i.i.i.i = lshr i64 %retval.sroa.0.0.copyload.i.i.i.i, 23
  ret i64 %shr.i.i.i.i
}